target datalayout = "e-m:e-p270:32:32-p271:32:32-p272:64:64-i64:64-i128:128-f80:128-n8:16:32:64-S128"
target triple = "x86_64-pc-linux-gnu"

%struct.LZ4IO_prefs_s = type { i32, i32, i32, i32, i64, i32, i32, i32, i32, i32, i32, i32, ptr, i32, i32 }

@g_displayLevel = internal global i32 0, align 4
@stderr = external global ptr, align 8
@.str.3 = private unnamed_addr constant [7 x i8] c"stdout\00", align 1
@stdout = external global ptr, align 8
@stdin = external global ptr, align 8
@.str.52 = private unnamed_addr constant [3 x i8] c"rb\00", align 1
@.str.54 = private unnamed_addr constant [26 x i8] c"Using stdout for output \0A\00", align 1
@.str.55 = private unnamed_addr constant [98 x i8] c"Sparse File Support automatically disabled on stdout ; to force-enable it, add --sparse command \0A\00", align 1
@.str.56 = private unnamed_addr constant [38 x i8] c"%s already exists; not overwritten  \0A\00", align 1
@.str.57 = private unnamed_addr constant [53 x i8] c"%s already exists; do you want to overwrite (y/N) ? \00", align 1
@.str.58 = private unnamed_addr constant [23 x i8] c"    not overwritten  \0A\00", align 1
@.str.59 = private unnamed_addr constant [3 x i8] c"wb\00", align 1
@.str.60 = private unnamed_addr constant [8 x i8] c"%s: %s\0A\00", align 1
@.str.74 = private unnamed_addr constant [10 x i8] c"/dev/null\00", align 1

; Function Attrs: nounwind uwtable
define internal i32 @UTIL_sameString(ptr noundef %0, ptr noundef %1) #0 {
  %3 = alloca i32, align 4
  %4 = alloca ptr, align 8
  %5 = alloca ptr, align 8
  store ptr %0, ptr %4, align 8, !tbaa !31
  store ptr %1, ptr %5, align 8, !tbaa !31
  %6 = load ptr, ptr %4, align 8, !tbaa !31
  %7 = icmp eq ptr %6, null
  br i1 %7, label %8, label %9

8:                                                ; preds = %2
  store i32 0, ptr %3, align 4
  br label %20

9:                                                ; preds = %2
  %10 = load ptr, ptr %5, align 8, !tbaa !31
  %11 = icmp eq ptr %10, null
  br i1 %11, label %12, label %13

12:                                               ; preds = %9
  store i32 0, ptr %3, align 4
  br label %20

13:                                               ; preds = %9
  %14 = load ptr, ptr %4, align 8, !tbaa !31
  %15 = load ptr, ptr %5, align 8, !tbaa !31
  %16 = call i32 @strcmp(ptr noundef %14, ptr noundef %15) #16
  %17 = icmp ne i32 %16, 0
  %18 = xor i1 %17, true
  %19 = zext i1 %18 to i32
  store i32 %19, ptr %3, align 4
  br label %20

20:                                               ; preds = %13, %12, %8
  %21 = load i32, ptr %3, align 4
  ret i32 %21
}

; Function Attrs: inlinehint nounwind uwtable
define available_externally i32 @getchar() #10 {
  %1 = load ptr, ptr @stdin, align 8, !tbaa !11
  %2 = call i32 @getc(ptr noundef %1)
  ret i32 %2
}

; Function Attrs: nounwind uwtable
define internal i32 @LZ4IO_isDevNull(ptr noundef %0) #0 {
  %2 = alloca ptr, align 8
  store ptr %0, ptr %2, align 8, !tbaa !31
  %3 = load ptr, ptr %2, align 8, !tbaa !31
  %4 = call i32 @UTIL_sameString(ptr noundef %3, ptr noundef @.str.74)
  ret i32 %4
}

; Function Attrs: nounwind uwtable
define internal i32 @LZ4IO_isStdout(ptr noundef %0) #0 {
  %2 = alloca ptr, align 8
  store ptr %0, ptr %2, align 8, !tbaa !31
  %3 = load ptr, ptr %2, align 8, !tbaa !31
  %4 = call i32 @UTIL_sameString(ptr noundef %3, ptr noundef @.str.3)
  ret i32 %4
}

; Function Attrs: nounwind uwtable
define internal ptr @LZ4IO_openDstFile(ptr noundef %0, ptr noundef %1) #0 {
  %3 = alloca ptr, align 8
  %4 = alloca ptr, align 8
  %5 = alloca ptr, align 8
  %6 = alloca ptr, align 8
  %7 = alloca ptr, align 8
  %8 = alloca i32, align 4
  %9 = alloca i32, align 4
  %10 = alloca i32, align 4
  store ptr %0, ptr %4, align 8, !tbaa !31
  store ptr %1, ptr %5, align 8, !tbaa !4
  call void @llvm.lifetime.start.p0(i64 8, ptr %6) #13
  %11 = load ptr, ptr %4, align 8, !tbaa !31
  %12 = call i32 @LZ4IO_isStdout(ptr noundef %11)
  %13 = icmp ne i32 %12, 0
  br i1 %13, label %14, label %46

14:                                               ; preds = %2
  %15 = load i32, ptr @g_displayLevel, align 4, !tbaa !9
  %16 = icmp sge i32 %15, 4
  br i1 %16, label %17, label %26

17:                                               ; preds = %14
  %18 = load ptr, ptr @stderr, align 8, !tbaa !11
  %19 = call i32 (ptr, ptr, ...) @fprintf(ptr noundef %18, ptr noundef @.str.54) #13
  %20 = load i32, ptr @g_displayLevel, align 4, !tbaa !9
  %21 = icmp sge i32 %20, 4
  br i1 %21, label %22, label %25

22:                                               ; preds = %17
  %23 = load ptr, ptr @stderr, align 8, !tbaa !11
  %24 = call i32 @fflush(ptr noundef %23)
  br label %25

25:                                               ; preds = %22, %17
  br label %26

26:                                               ; preds = %25, %14
  %27 = load ptr, ptr @stdout, align 8, !tbaa !11
  store ptr %27, ptr %6, align 8, !tbaa !11
  %28 = load ptr, ptr %5, align 8, !tbaa !4
  %29 = getelementptr inbounds nuw %struct.LZ4IO_prefs_s, ptr %28, i32 0, i32 8
  %30 = load i32, ptr %29, align 4, !tbaa !24
  %31 = icmp eq i32 %30, 1
  br i1 %31, label %32, label %45

32:                                               ; preds = %26
  %33 = load i32, ptr @g_displayLevel, align 4, !tbaa !9
  %34 = icmp sge i32 %33, 4
  br i1 %34, label %35, label %44

35:                                               ; preds = %32
  %36 = load ptr, ptr @stderr, align 8, !tbaa !11
  %37 = call i32 (ptr, ptr, ...) @fprintf(ptr noundef %36, ptr noundef @.str.55) #13
  %38 = load i32, ptr @g_displayLevel, align 4, !tbaa !9
  %39 = icmp sge i32 %38, 4
  br i1 %39, label %40, label %43

40:                                               ; preds = %35
  %41 = load ptr, ptr @stderr, align 8, !tbaa !11
  %42 = call i32 @fflush(ptr noundef %41)
  br label %43

43:                                               ; preds = %40, %35
  br label %44

44:                                               ; preds = %43, %32
  br label %45

45:                                               ; preds = %44, %26
  br label %124

46:                                               ; preds = %2
  %47 = load ptr, ptr %5, align 8, !tbaa !4
  %48 = getelementptr inbounds nuw %struct.LZ4IO_prefs_s, ptr %47, i32 0, i32 1
  %49 = load i32, ptr %48, align 4, !tbaa !17
  %50 = icmp ne i32 %49, 0
  br i1 %50, label %101, label %51

51:                                               ; preds = %46
  %52 = load ptr, ptr %4, align 8, !tbaa !31
  %53 = call i32 @LZ4IO_isDevNull(ptr noundef %52)
  %54 = icmp ne i32 %53, 0
  br i1 %54, label %101, label %55

55:                                               ; preds = %51
  call void @llvm.lifetime.start.p0(i64 8, ptr %7) #13
  %56 = load ptr, ptr %4, align 8, !tbaa !31
  %57 = call noalias ptr @fopen(ptr noundef %56, ptr noundef @.str.52)
  store ptr %57, ptr %7, align 8, !tbaa !11
  %58 = load ptr, ptr %7, align 8, !tbaa !11
  %59 = icmp ne ptr %58, null
  br i1 %59, label %60, label %97

60:                                               ; preds = %55
  %61 = load ptr, ptr %7, align 8, !tbaa !11
  %62 = call i32 @fclose(ptr noundef %61)
  %63 = load i32, ptr @g_displayLevel, align 4, !tbaa !9
  %64 = icmp sle i32 %63, 1
  br i1 %64, label %65, label %69

65:                                               ; preds = %60
  %66 = load ptr, ptr @stderr, align 8, !tbaa !11
  %67 = load ptr, ptr %4, align 8, !tbaa !31
  %68 = call i32 (ptr, ptr, ...) @fprintf(ptr noundef %66, ptr noundef @.str.56, ptr noundef %67) #13
  store ptr null, ptr %3, align 8
  store i32 1, ptr %8, align 4
  br label %98

69:                                               ; preds = %60
  %70 = load ptr, ptr @stderr, align 8, !tbaa !11
  %71 = load ptr, ptr %4, align 8, !tbaa !31
  %72 = call i32 (ptr, ptr, ...) @fprintf(ptr noundef %70, ptr noundef @.str.57, ptr noundef %71) #13
  call void @llvm.lifetime.start.p0(i64 4, ptr %9) #13
  %73 = call i32 @getchar()
  store i32 %73, ptr %9, align 4, !tbaa !9
  %74 = load i32, ptr %9, align 4, !tbaa !9
  %75 = icmp ne i32 %74, 89
  br i1 %75, label %76, label %82

76:                                               ; preds = %69
  %77 = load i32, ptr %9, align 4, !tbaa !9
  %78 = icmp ne i32 %77, 121
  br i1 %78, label %79, label %82

79:                                               ; preds = %76
  %80 = load ptr, ptr @stderr, align 8, !tbaa !11
  %81 = call i32 (ptr, ptr, ...) @fprintf(ptr noundef %80, ptr noundef @.str.58) #13
  store ptr null, ptr %3, align 8
  store i32 1, ptr %8, align 4
  br label %94

82:                                               ; preds = %76, %69
  br label %83

83:                                               ; preds = %91, %82
  %84 = load i32, ptr %9, align 4, !tbaa !9
  %85 = icmp ne i32 %84, -1
  br i1 %85, label %86, label %89

86:                                               ; preds = %83
  %87 = load i32, ptr %9, align 4, !tbaa !9
  %88 = icmp ne i32 %87, 10
  br label %89

89:                                               ; preds = %86, %83
  %90 = phi i1 [ false, %83 ], [ %88, %86 ]
  br i1 %90, label %91, label %93

91:                                               ; preds = %89
  %92 = call i32 @getchar()
  store i32 %92, ptr %9, align 4, !tbaa !9
  br label %83, !llvm.loop !103

93:                                               ; preds = %89
  store i32 0, ptr %8, align 4
  br label %94

94:                                               ; preds = %93, %79
  call void @llvm.lifetime.end.p0(i64 4, ptr %9) #13
  %95 = load i32, ptr %8, align 4
  switch i32 %95, label %98 [
    i32 0, label %96
  ]

96:                                               ; preds = %94
  br label %97

97:                                               ; preds = %96, %55
  store i32 0, ptr %8, align 4
  br label %98

98:                                               ; preds = %97, %94, %65
  call void @llvm.lifetime.end.p0(i64 8, ptr %7) #13
  %99 = load i32, ptr %8, align 4
  switch i32 %99, label %143 [
    i32 0, label %100
  ]

100:                                              ; preds = %98
  br label %101

101:                                              ; preds = %100, %51, %46
  %102 = load ptr, ptr %4, align 8, !tbaa !31
  %103 = call noalias ptr @fopen(ptr noundef %102, ptr noundef @.str.59)
  store ptr %103, ptr %6, align 8, !tbaa !11
  %104 = load ptr, ptr %6, align 8, !tbaa !11
  %105 = icmp eq ptr %104, null
  br i1 %105, label %106, label %123

106:                                              ; preds = %101
  %107 = load i32, ptr @g_displayLevel, align 4, !tbaa !9
  %108 = icmp sge i32 %107, 1
  br i1 %108, label %109, label %122

109:                                              ; preds = %106
  %110 = load ptr, ptr @stderr, align 8, !tbaa !11
  %111 = load ptr, ptr %4, align 8, !tbaa !31
  %112 = call ptr @__errno_location() #17
  %113 = load i32, ptr %112, align 4, !tbaa !9
  %114 = call ptr @strerror(i32 noundef %113) #13
  %115 = call i32 (ptr, ptr, ...) @fprintf(ptr noundef %110, ptr noundef @.str.60, ptr noundef %111, ptr noundef %114) #13
  %116 = load i32, ptr @g_displayLevel, align 4, !tbaa !9
  %117 = icmp sge i32 %116, 4
  br i1 %117, label %118, label %121

118:                                              ; preds = %109
  %119 = load ptr, ptr @stderr, align 8, !tbaa !11
  %120 = call i32 @fflush(ptr noundef %119)
  br label %121

121:                                              ; preds = %118, %109
  br label %122

122:                                              ; preds = %121, %106
  br label %123

123:                                              ; preds = %122, %101
  br label %124

124:                                              ; preds = %123, %45
  call void @llvm.lifetime.start.p0(i64 4, ptr %10) #13
  %125 = load ptr, ptr %5, align 8, !tbaa !4
  %126 = getelementptr inbounds nuw %struct.LZ4IO_prefs_s, ptr %125, i32 0, i32 8
  %127 = load i32, ptr %126, align 4, !tbaa !24
  %128 = load ptr, ptr %6, align 8, !tbaa !11
  %129 = load ptr, ptr @stdout, align 8, !tbaa !11
  %130 = icmp eq ptr %128, %129
  %131 = zext i1 %130 to i32
  %132 = sub nsw i32 %127, %131
  %133 = icmp sgt i32 %132, 0
  %134 = zext i1 %133 to i32
  store i32 %134, ptr %10, align 4, !tbaa !9
  %135 = load ptr, ptr %6, align 8, !tbaa !11
  %136 = icmp ne ptr %135, null
  br i1 %136, label %137, label %141

137:                                              ; preds = %124
  %138 = load i32, ptr %10, align 4, !tbaa !9
  %139 = icmp ne i32 %138, 0
  br i1 %139, label %140, label %141

140:                                              ; preds = %137
  br label %141

141:                                              ; preds = %140, %137, %124
  call void @llvm.lifetime.end.p0(i64 4, ptr %10) #13
  %142 = load ptr, ptr %6, align 8, !tbaa !11
  store ptr %142, ptr %3, align 8
  store i32 1, ptr %8, align 4
  br label %143

143:                                              ; preds = %141, %98
  call void @llvm.lifetime.end.p0(i64 8, ptr %6) #13
  %144 = load ptr, ptr %3, align 8
  ret ptr %144
}