; Function Attrs: nounwind uwtable
define internal fastcc ptr @LZ4IO_openDstFile(ptr noundef %0, ptr noundef readonly captures(none) %1) unnamed_addr #11 {
  %3 = icmp eq ptr %0, null
  br i1 %3, label %LZ4IO_isStdout.exit.thread, label %LZ4IO_isStdout.exit

LZ4IO_isStdout.exit:                              ; preds = %2
  %4 = tail call i32 @strcmp(ptr noundef nonnull readonly dereferenceable(1) %0, ptr noundef nonnull dereferenceable(7) @.str.3) #30
  %.not.i.i.not = icmp eq i32 %4, 0
  br i1 %.not.i.i.not, label %5, label %.thread

5:                                                ; preds = %LZ4IO_isStdout.exit
  %6 = load i32, ptr @g_displayLevel, align 4, !tbaa !4
  %7 = icmp sgt i32 %6, 3
  br i1 %7, label %8, label %.thread48

8:                                                ; preds = %5
  %9 = load ptr, ptr @stderr, align 8, !tbaa !8
  %10 = tail call i64 @fwrite(ptr nonnull @.str.54, i64 25, i64 1, ptr %9) #27
  %11 = load i32, ptr @g_displayLevel, align 4, !tbaa !4
  %12 = icmp sgt i32 %11, 3
  br i1 %12, label %14, label %.thread48

.thread48:                                        ; preds = %8, %5
  %13 = load ptr, ptr @stdout, align 8, !tbaa !8
  br label %.critedge

14:                                               ; preds = %8
  %15 = load ptr, ptr @stderr, align 8, !tbaa !8
  %16 = tail call i32 @fflush(ptr noundef %15)
  %.pre = load i32, ptr @g_displayLevel, align 4
  %17 = icmp sgt i32 %.pre, 3
  %18 = load ptr, ptr @stdout, align 8, !tbaa !8
  %19 = getelementptr inbounds nuw i8, ptr %1, i64 36
  %20 = load i32, ptr %19, align 4, !tbaa !22
  %21 = icmp eq i32 %20, 1
  %or.cond6 = select i1 %21, i1 %17, i1 false
  br i1 %or.cond6, label %22, label %.critedge

22:                                               ; preds = %14
  %23 = load ptr, ptr @stderr, align 8, !tbaa !8
  %24 = tail call i64 @fwrite(ptr nonnull @.str.55, i64 97, i64 1, ptr %23) #27
  %25 = load i32, ptr @g_displayLevel, align 4, !tbaa !4
  %26 = icmp sgt i32 %25, 3
  br i1 %26, label %27, label %.critedge

27:                                               ; preds = %22
  %28 = load ptr, ptr @stderr, align 8, !tbaa !8
  %29 = tail call i32 @fflush(ptr noundef %28)
  br label %.critedge

LZ4IO_isStdout.exit.thread:                       ; preds = %2
  %30 = getelementptr inbounds nuw i8, ptr %1, i64 4
  %31 = load i32, ptr %30, align 4, !tbaa !15
  %.not36 = icmp eq i32 %31, 0
  br i1 %.not36, label %LZ4IO_isDevNull.exit.thread, label %.loopexit

.thread:                                          ; preds = %LZ4IO_isStdout.exit
  %32 = getelementptr inbounds nuw i8, ptr %1, i64 4
  %33 = load i32, ptr %32, align 4, !tbaa !15
  %.not3643 = icmp eq i32 %33, 0
  br i1 %.not3643, label %LZ4IO_isDevNull.exit, label %.loopexit

LZ4IO_isDevNull.exit:                             ; preds = %.thread
  %34 = tail call i32 @strcmp(ptr noundef nonnull readonly dereferenceable(1) %0, ptr noundef nonnull dereferenceable(10) @.str.74) #30
  %.not.i.i39.not = icmp eq i32 %34, 0
  br i1 %.not.i.i39.not, label %.loopexit, label %LZ4IO_isDevNull.exit.thread

LZ4IO_isDevNull.exit.thread:                      ; preds = %LZ4IO_isStdout.exit.thread, %LZ4IO_isDevNull.exit
  %35 = tail call noalias ptr @fopen(ptr noundef %0, ptr noundef nonnull @.str.52)
  %.not38 = icmp eq ptr %35, null
  br i1 %.not38, label %.loopexit, label %36

36:                                               ; preds = %LZ4IO_isDevNull.exit.thread
  %37 = tail call i32 @fclose(ptr noundef nonnull %35)
  %38 = load i32, ptr @g_displayLevel, align 4, !tbaa !4
  %39 = icmp slt i32 %38, 2
  %40 = load ptr, ptr @stderr, align 8, !tbaa !8
  br i1 %39, label %41, label %43

41:                                               ; preds = %36
  %42 = tail call i32 (ptr, ptr, ...) @fprintf(ptr noundef %40, ptr noundef nonnull @.str.56, ptr noundef %0) #26
  br label %.critedge

43:                                               ; preds = %36
  %44 = tail call i32 (ptr, ptr, ...) @fprintf(ptr noundef %40, ptr noundef nonnull @.str.57, ptr noundef %0) #26
  %45 = load ptr, ptr @stdin, align 8, !tbaa !8
  %46 = tail call i32 @getc(ptr noundef %45)
  %47 = and i32 %46, -33
  %or.cond.not = icmp eq i32 %47, 89
  br i1 %or.cond.not, label %.preheader, label %.thread47

.thread47:                                        ; preds = %43
  %48 = load ptr, ptr @stderr, align 8, !tbaa !8
  %49 = tail call i64 @fwrite(ptr nonnull @.str.58, i64 22, i64 1, ptr %48) #27
  br label %.critedge

.preheader:                                       ; preds = %43, %50
  %.031 = phi i32 [ %52, %50 ], [ %46, %43 ]
  switch i32 %.031, label %50 [
    i32 -1, label %.loopexit
    i32 10, label %.loopexit
  ]

50:                                               ; preds = %.preheader
  %51 = load ptr, ptr @stdin, align 8, !tbaa !8
  %52 = tail call i32 @getc(ptr noundef %51)
  br label %.preheader, !llvm.loop !101

.loopexit:                                        ; preds = %.preheader, %.preheader, %.thread, %LZ4IO_isDevNull.exit.thread, %LZ4IO_isDevNull.exit, %LZ4IO_isStdout.exit.thread
  %53 = tail call noalias ptr @fopen(ptr noundef %0, ptr noundef nonnull @.str.59)
  %54 = icmp eq ptr %53, null
  %55 = load i32, ptr @g_displayLevel, align 4
  %56 = icmp sgt i32 %55, 0
  %or.cond8 = select i1 %54, i1 %56, i1 false
  br i1 %or.cond8, label %57, label %.critedge

57:                                               ; preds = %.loopexit
  %58 = load ptr, ptr @stderr, align 8, !tbaa !8
  %59 = tail call ptr @__errno_location() #31
  %60 = load i32, ptr %59, align 4, !tbaa !4
  %61 = tail call ptr @strerror(i32 noundef %60) #24
  %62 = tail call i32 (ptr, ptr, ...) @fprintf(ptr noundef %58, ptr noundef nonnull @.str.60, ptr noundef %0, ptr noundef %61) #26
  %63 = load i32, ptr @g_displayLevel, align 4, !tbaa !4
  %64 = icmp sgt i32 %63, 3
  br i1 %64, label %65, label %.critedge

65:                                               ; preds = %57
  %66 = load ptr, ptr @stderr, align 8, !tbaa !8
  %67 = tail call i32 @fflush(ptr noundef %66)
  br label %.critedge

.critedge:                                        ; preds = %.thread48, %.thread47, %41, %27, %22, %14, %65, %57, %.loopexit
  %.3 = phi ptr [ %18, %27 ], [ %18, %22 ], [ %18, %14 ], [ null, %65 ], [ null, %57 ], [ %53, %.loopexit ], [ null, %41 ], [ null, %.thread47 ], [ %13, %.thread48 ]
  ret ptr %.3
}